
multiplier.out:     формат файла elf32-littleriscv


Дизассемблирование раздела .text:

00010054 <main>:
   10054:	fe010113          	addi	sp,sp,-32
   10058:	00112e23          	sw	ra,28(sp)
   1005c:	00812c23          	sw	s0,24(sp)
   10060:	02010413          	addi	s0,sp,32
   10064:	01300793          	li	a5,19
   10068:	fef42623          	sw	a5,-20(s0)
   1006c:	00800793          	li	a5,8
   10070:	fef42423          	sw	a5,-24(s0)
   10074:	fe842583          	lw	a1,-24(s0)
   10078:	fec42503          	lw	a0,-20(s0)
   1007c:	020000ef          	jal	ra,1009c <mult>
   10080:	fea42223          	sw	a0,-28(s0)
   10084:	00000793          	li	a5,0
   10088:	00078513          	mv	a0,a5
   1008c:	01c12083          	lw	ra,28(sp)
   10090:	01812403          	lw	s0,24(sp)
   10094:	02010113          	addi	sp,sp,32
   10098:	00008067          	ret

0001009c <mult>:
   1009c:	fd010113          	addi	sp,sp,-48
   100a0:	02812623          	sw	s0,44(sp)
   100a4:	03010413          	addi	s0,sp,48
   100a8:	fca42e23          	sw	a0,-36(s0)
   100ac:	fcb42c23          	sw	a1,-40(s0)
   100b0:	fe042623          	sw	zero,-20(s0)
   100b4:	0380006f          	j	100ec <mult+0x50>
   100b8:	fd842783          	lw	a5,-40(s0)
   100bc:	0017f793          	andi	a5,a5,1
   100c0:	00078a63          	beqz	a5,100d4 <mult+0x38>
   100c4:	fec42703          	lw	a4,-20(s0)
   100c8:	fdc42783          	lw	a5,-36(s0)
   100cc:	00f707b3          	add	a5,a4,a5
   100d0:	fef42623          	sw	a5,-20(s0)
   100d4:	fd842783          	lw	a5,-40(s0)
   100d8:	4017d793          	srai	a5,a5,0x1
   100dc:	fcf42c23          	sw	a5,-40(s0)
   100e0:	fdc42783          	lw	a5,-36(s0)
   100e4:	00179793          	slli	a5,a5,0x1
   100e8:	fcf42e23          	sw	a5,-36(s0)
   100ec:	fd842783          	lw	a5,-40(s0)
   100f0:	fc0794e3          	bnez	a5,100b8 <mult+0x1c>
   100f4:	fec42783          	lw	a5,-20(s0)
   100f8:	00078513          	mv	a0,a5
   100fc:	02c12403          	lw	s0,44(sp)
   10100:	03010113          	addi	sp,sp,48
   10104:	00008067          	ret
